(dp0
Vengine
p1
S'pdflatex'
p2
sVpackages
p3
c__builtin__
set
p4
((lp5
Vhyperref
p6
aVfontenc
p7
aVblindtext
p8
aVshowlabels
p9
aVbabel
p10
aVamsmath
p11
aVgeometry
p12
aVinputenc
p13
aVamsthm
p14
aVmicrotype
p15
aVonlyamsmath
p16
aVamsfonts
p17
aVgraphicx
p18
aVtodonotes
p19
aVamssymb
p20
atp21
Rp22
sVfiles_with_guttermarks
p23
g4
((lp24
S'M3R.tex'
p25
aV/usr/local/texlive/2016/texmf-dist/tex/latex/geometry/geometry.sty
p26
atp27
Rp28
sVsynctex
p29
I01
s.