(dp0
Vengine
p1
S'pdflatex'
p2
sVpackages
p3
c__builtin__
set
p4
((lp5
Vhyperref
p6
aVonlyamsmath
p7
aVblindtext
p8
aVshowlabels
p9
aVbabel
p10
aVgeometry
p11
aVamsmath
p12
aVamsthm
p13
aVmicrotype
p14
aVfontenc
p15
aVgraphicx
p16
aVamsfonts
p17
aVinputenc
p18
aVtodonotes
p19
aVamssymb
p20
atp21
Rp22
sVfiles_with_guttermarks
p23
g4
((lp24
S'M3R.tex'
p25
aV/Users/jackburker/Documents/BIZ/ncsu/ma405/tex/M3R/./M3R.tex
p26
atp27
Rp28
sVsynctex
p29
I01
s.